target datalayout = "e-m:e-p270:32:32-p271:32:32-p272:64:64-i64:64-i128:128-f80:128-n8:16:32:64-S128"
target triple = "x86_64-unknown-linux-gnu"

%"struct.arrow::(anonymous namespace)::SchemaExporter" = type { %"struct.arrow::(anonymous namespace)::ExportedSchemaPrivateData", i64, %"class.std::vector", %"class.std::unique_ptr", %"class.std::vector.9" }
%"struct.arrow::(anonymous namespace)::ExportedSchemaPrivateData" = type { %"class.std::__cxx11::basic_string", %"class.std::__cxx11::basic_string", %"class.std::__cxx11::basic_string", %struct.ArrowSchema, %"class.arrow::internal::StaticVectorImpl", %"class.arrow::internal::StaticVectorImpl.0" }
%"class.std::__cxx11::basic_string" = type { %"struct.std::__cxx11::basic_string<char>::_Alloc_hider", i64, %union.anon }
%"struct.std::__cxx11::basic_string<char>::_Alloc_hider" = type { ptr }
%union.anon = type { i64, [8 x i8] }
%struct.ArrowSchema = type { ptr, ptr, ptr, i64, i64, ptr, ptr, ptr, ptr }
%"class.arrow::internal::StaticVectorImpl" = type { %"struct.arrow::internal::SmallVectorStorage" }
%"struct.arrow::internal::SmallVectorStorage" = type { [1 x %"class.arrow::internal::AlignedStorage"], i64, ptr, i64 }
%"class.arrow::internal::AlignedStorage" = type { %"union.std::aligned_storage<72, 8>::type" }
%"union.std::aligned_storage<72, 8>::type" = type { [72 x i8] }
%"class.arrow::internal::StaticVectorImpl.0" = type { %"struct.arrow::internal::SmallVectorStorage.1" }
%"struct.arrow::internal::SmallVectorStorage.1" = type { [4 x %"class.arrow::internal::AlignedStorage.2"], i64, ptr, i64 }
%"class.arrow::internal::AlignedStorage.2" = type { %"union.std::aligned_storage<8, 8>::type" }
%"union.std::aligned_storage<8, 8>::type" = type { [8 x i8] }
%"class.std::vector" = type { %"struct.std::_Vector_base" }
%"struct.std::_Vector_base" = type { %"struct.std::_Vector_base<std::pair<std::__cxx11::basic_string<char>, std::__cxx11::basic_string<char>>, std::allocator<std::pair<std::__cxx11::basic_string<char>, std::__cxx11::basic_string<char>>>>::_Vector_impl" }
%"struct.std::_Vector_base<std::pair<std::__cxx11::basic_string<char>, std::__cxx11::basic_string<char>>, std::allocator<std::pair<std::__cxx11::basic_string<char>, std::__cxx11::basic_string<char>>>>::_Vector_impl" = type { %"struct.std::_Vector_base<std::pair<std::__cxx11::basic_string<char>, std::__cxx11::basic_string<char>>, std::allocator<std::pair<std::__cxx11::basic_string<char>, std::__cxx11::basic_string<char>>>>::_Vector_impl_data" }
%"struct.std::_Vector_base<std::pair<std::__cxx11::basic_string<char>, std::__cxx11::basic_string<char>>, std::allocator<std::pair<std::__cxx11::basic_string<char>, std::__cxx11::basic_string<char>>>>::_Vector_impl_data" = type { ptr, ptr, ptr }
%"class.std::unique_ptr" = type { %"struct.std::__uniq_ptr_data" }
%"struct.std::__uniq_ptr_data" = type { %"class.std::__uniq_ptr_impl" }
%"class.std::__uniq_ptr_impl" = type { %"class.std::tuple" }
%"class.std::tuple" = type { %"struct.std::_Tuple_impl" }
%"struct.std::_Tuple_impl" = type { %"struct.std::_Head_base.8" }
%"struct.std::_Head_base.8" = type { ptr }
%"class.std::vector.9" = type { %"struct.std::_Vector_base.10" }
%"struct.std::_Vector_base.10" = type { %"struct.std::_Vector_base<arrow::(anonymous namespace)::SchemaExporter, std::allocator<arrow::(anonymous namespace)::SchemaExporter>>::_Vector_impl" }
%"struct.std::_Vector_base<arrow::(anonymous namespace)::SchemaExporter, std::allocator<arrow::(anonymous namespace)::SchemaExporter>>::_Vector_impl" = type { %"struct.std::_Vector_base<arrow::(anonymous namespace)::SchemaExporter, std::allocator<arrow::(anonymous namespace)::SchemaExporter>>::_Vector_impl_data" }
%"struct.std::_Vector_base<arrow::(anonymous namespace)::SchemaExporter, std::allocator<arrow::(anonymous namespace)::SchemaExporter>>::_Vector_impl_data" = type { ptr, ptr, ptr }

; Function Attrs: mustprogress uwtable
define internal void @_ZNSt12_Destroy_auxILb0EE9__destroyIPN5arrow12_GLOBAL__N_114SchemaExporterEEEvT_S6_(ptr noundef %__first, ptr noundef %__last) #0 align 2 {
entry:
  %__first.addr = alloca ptr, align 8
  %__last.addr = alloca ptr, align 8
  store ptr %__first, ptr %__first.addr, align 8
  store ptr %__last, ptr %__last.addr, align 8
  br label %for.cond

for.cond:                                         ; preds = %for.inc, %entry
  %0 = load ptr, ptr %__first.addr, align 8
  %1 = load ptr, ptr %__last.addr, align 8
  %cmp = icmp ne ptr %0, %1
  br i1 %cmp, label %for.body, label %for.end

for.body:                                         ; preds = %for.cond
  %2 = load ptr, ptr %__first.addr, align 8
  call void @_ZSt8_DestroyIN5arrow12_GLOBAL__N_114SchemaExporterEEvPT_(ptr noundef %2)
  br label %for.inc

for.inc:                                          ; preds = %for.body
  %3 = load ptr, ptr %__first.addr, align 8
  %incdec.ptr = getelementptr inbounds %"struct.arrow::(anonymous namespace)::SchemaExporter", ptr %3, i32 1
  store ptr %incdec.ptr, ptr %__first.addr, align 8
  br label %for.cond, !llvm.loop !40

for.end:                                          ; preds = %for.cond
  ret void
}

; Function Attrs: mustprogress uwtable
define internal void @_ZSt8_DestroyIPN5arrow12_GLOBAL__N_114SchemaExporterEEvT_S4_(ptr noundef %__first, ptr noundef %__last) #0 {
entry:
  %__first.addr = alloca ptr, align 8
  %__last.addr = alloca ptr, align 8
  store ptr %__first, ptr %__first.addr, align 8
  store ptr %__last, ptr %__last.addr, align 8
  %0 = load ptr, ptr %__first.addr, align 8
  %1 = load ptr, ptr %__last.addr, align 8
  call void @_ZNSt12_Destroy_auxILb0EE9__destroyIPN5arrow12_GLOBAL__N_114SchemaExporterEEEvT_S6_(ptr noundef %0, ptr noundef %1)
  ret void
}